ccopy_reg
_reconstructor
p1
(ctensorflow.contrib.learn.python.learn.preprocessing.text
VocabularyProcessor
p2
c__builtin__
object
p3
NtRp4
(dp5
S'vocabulary_'
p6
g1
(ctensorflow.contrib.learn.python.learn.preprocessing.categorical_vocabulary
CategoricalVocabulary
p7
g3
NtRp8
(dp9
S'_freeze'
p10
I01
sS'_unknown_token'
p11
S'<UNK>'
p12
sS'_support_reverse'
p13
I01
sS'_freq'
p14
ccollections
defaultdict
p15
(c__builtin__
int
p16
tRp17
S'\xe8\xba'
p18
I127
sS'\xe8\xb9'
p19
I4
sS'\xe8\xbe'
p20
I616
sS'\xe8\xbd'
p21
I6742
sS'\xe8\xb2'
p22
I1
sS'18280392767'
p23
I1
sS'\xe8\xb5'
p24
I1160
sS'\xe8\xaa'
p25
I2
sS'3921'
p26
I2
sS'ga'
p27
I1
sS'gs'
p28
I1
sS'\xe6\xb3\xbd\xe5'
p29
I1
sS'13223922040'
p30
I1
sS'\xbe\xe4\xb9'
p31
I1
sS'220000'
p32
I1
sS'tz'
p33
I1
sS'13907236630'
p34
I1
sS'0'
I58
sS'tm'
p35
I1
sS'\xb2\xe7\xaa'
p36
I1
sS'\xe9\xba\xbd'
p37
I3
sS'\xbd\xe6\xb2\xb9'
p38
I1
sS'\xe5\xaa\xb3'
p39
I1
sS'\xbd\xe4\xba'
p40
I2
sS'\xbd\xe4\xb9'
p41
I49
sS'15397165203'
p42
I1
sS'\xbd\xe4\xbc'
p43
I4
sS'\xbd\xe4\xbd'
p44
I1
sS'966'
p45
I1
sS'mpv'
p46
I7
sS'\xaa\xe4\xba\xba'
p47
I82
sS'18912615002'
p48
I1
sS'13857179036'
p49
I1
sS'-5'
p50
I2
sS'\xe4\xba\xb2'
p51
I20
sS'-0'
p52
I2
sS'-3'
p53
I1
sS'299'
p54
I1
sS'\xe4\xba\xba'
p55
I923
sS'292'
p56
I1
sS'\xe5\xbc\xba'
p57
I3
sS'\xe5\xbc\xb9'
p58
I2
sS'1080'
p59
I1
sS'194'
p60
I1
sS'13671459298'
p61
I2
sS'190'
p62
I1
sS'193'
p63
I1
sS'192'
p64
I1
sS'49'
p65
I5
sS'13572444155'
p66
I1
sS'277'
p67
I1
sS'13550242569'
p68
I1
sS'\xe8\xbe\xb9\xe4'
p69
I1
sS'15261155789'
p70
I1
sS'\xe5\xbc\xba\xe9'
p71
I2
sS'\xe5\xbc\xba\xe5'
p72
I1
sS'\xe5\xbc\xba\xe7'
p73
I2
sS'suv'
p74
I6
sS'sz'
p75
I1
sS'521'
p76
I1
sS'523'
p77
I1
sS'3g'
p78
I5
sS'13922107930'
p79
I1
sS'440'
p80
I1
sS'\xb3\xe4\xb9'
p81
I1
sS'\xb3\xe4\xba'
p82
I17
sS'13623410154'
p83
I1
sS'\xd0'
I4
sS'103'
p84
I2
sS'100'
p85
I38
sS'\xb5\xe8\xbd'
p86
I7
sS'104'
p87
I2
sS'105'
p88
I2
sS'39'
p89
I7
sS'38'
p90
I5
sS'33'
p91
I4
sS'32'
p92
I2
sS'k'
I6
sS'30'
p93
I85
sS'37'
p94
I3
sS'36'
p95
I7
sS'35'
p96
I14
sS'34'
p97
I9
sS'246'
p98
I2
sS'13880204970'
p99
I1
sS'2141730671'
p100
I1
sS'app'
p101
I18
sS'333'
p102
I2
sS'332'
p103
I1
sS'13813042113'
p104
I1
sS'7347'
p105
I1
sS'sgm'
p106
I1
sS'13214534474'
p107
I2
sS'11859'
p108
I1
sS'6'
I155
sS'\xba\xe8'
p109
I61
sS'\xba\xe9'
p110
I146
sS'\xba\xe4'
p111
I1784
sS'\xba\xe5'
p112
I205
sS'\xba\xe6'
p113
I76
sS'\xba\xe7'
p114
I78
sS'13411952092'
p115
I3
sS'550'
p116
I1
sS'99'
p117
I5
sS'98'
p118
I2
sS'\xb5\xe4'
p119
I3
sS'91'
p120
I2
sS'90'
p121
I13
sS'93'
p122
I7
sS'13253778916'
p123
I1
sS'95'
p124
I4
sS'94'
p125
I9
sS'97'
p126
I7
sS'96'
p127
I2
sS'\xe5\xbc\xb9\xe5'
p128
I1
sS'mg'
p129
I1
sS'13939585180'
p130
I1
sS'ma'
p131
I1
sS'f'
I11
sS'mm'
p132
I1
sS'tc'
p133
I1
sS'13782193390'
p134
I1
sS'15928375008'
p135
I1
sS'v'
I10
sS'554'
p136
I1
sS'15015021388'
p137
I1
sS'83353'
p138
I1
sS'18700401665'
p139
I1
sS'vy'
p140
I2
sS'18688224785'
p141
I1
sS'230'
p142
I4
sS'13882113819'
p143
I1
sS'13929232855'
p144
I1
sS'1198'
p145
I1
sS'15200770069'
p146
I1
sS'18971551068'
p147
I1
sS'13488893120'
p148
I1
sS'1'
I243
sS'\xe6\xb2\xb3\xe5'
p149
I20
sS'155'
p150
I1
sS'85919'
p151
I1
sS'18173117036'
p152
I1
sS'2238'
p153
I1
sS'60043'
p154
I1
sS'\xe5\xaa'
p155
I2
sS'610'
p156
I1
sS'2700'
p157
I1
sS'\xe5\xbd'
p158
I425
sS'\xe5\xbc'
p159
I743
sS'\xe5\xbe'
p160
I416
sS'\xe5\xb9'
p161
I343
sS'\xe5\xba'
p162
I385
sS'\xe5\xb5'
p163
I5
sS'fi'
p164
I2
sS'\xe5\xb3'
p165
I321
sS'\xe5\xb2'
p166
I29
sS'a'
I73
sS'\xbe\xe8'
p167
I2
sS'\xaa\xe8\xba'
p168
I1
sS'\xe6'
I61986
sS'\xba\xe8\xbd'
p169
I86
sS'q'
I1
sS'sc'
p170
I1
sS'1300'
p171
I1
sS'18825807718'
p172
I1
sS'\xb3\xe7\xb3'
p173
I12
sS'2650'
p174
I1
sS'\xbd\xe5'
p175
I171
sS'\xbd\xe4'
p176
I3
sS'\xbd\xe7'
p177
I9
sS'\xbd\xe6'
p178
I6
sS'137'
p179
I1
sS'15874825255'
p180
I1
sS'135'
p181
I2
sS'139'
p182
I3
sS'\xbd\xe9'
p183
I1
sS'\xbd\xe8'
p184
I69
sS'24'
p185
I136
sS'25'
p186
I52
sS'26'
p187
I17
sS'27'
p188
I23
sS'20'
p189
I98
sS'21'
p190
I28
sS'22'
p191
I37
sS'23'
p192
I43
sS'\xe6\xb2\xaa'
p193
I1
sS'1838'
p194
I1
sS'28'
p195
I22
sS'\xe5\xb9\xb3\xe5'
p196
I115
sS'102901'
p197
I1
sS'\xe6\xb2\xb3'
p198
I6
sS'406'
p199
I1
sS'\xe5\xb9\xb3\xe4'
p200
I2
sS'400'
p201
I3
sS'2015'
p202
I7
sS'2014'
p203
I2
sS'\xe6\xb2\xb9'
p204
I112
sS'2016'
p205
I15
sS'2011'
p206
I2
sS'2010'
p207
I2
sS'2013'
p208
I3
sS'2012'
p209
I3
sS'\xe6\xb2\xb3\xe6\xba'
p210
I2
sS'\xc7'
I4
sS'ceo'
p211
I1
sS'62687'
p212
I1
sS'83789'
p213
I1
sS'xg'
p214
I1
sS'9'
I107
sS'yz'
p215
I1
sS'13896856098'
p216
I3
sS'13244705061'
p217
I3
sS'18323891110'
p218
I1
sS'\xbe\xe5\xbc'
p219
I1
sS'\xbe\xe5\xba'
p220
I3
sS'\xe8\xbe\xbe\xe5'
p221
I42
sS'\xe7'
I20371
sS'18520033326'
p222
I2
sS'18922157193'
p223
I1
sS'l'
I13
sS'370'
p224
I1
sS'13433336910'
p225
I1
sS'147'
p226
I1
sS'18748929403'
p227
I1
sS'\xbd\xe7\xba'
p228
I9
sS'700'
p229
I2
sS'13757920289'
p230
I1
sS'88'
p231
I10
sS'9017'
p232
I2
sS'17051139508'
p233
I1
sS'82'
p234
I3
sS'83'
p235
I1
sS'80'
p236
I22
sS'81'
p237
I3
sS'86'
p238
I3
sS'87'
p239
I1
sS'84'
p240
I1
sS'85'
p241
I3
sS'15305106118'
p242
I1
sS'ftp'
p243
I1
sS'13871857896'
p244
I1
sS'5847'
p245
I1
sS'7'
I140
sS'\xb5\xe5'
p246
I3
sS'\xbc'
I187
sS'\xb3\xe5\xbc'
p247
I1
sS'13073068110'
p248
I1
sS'\xc3\xaa'
p249
I2
sS'\xe4\xba\xb2\xe6'
p250
I1
sS'245'
p251
I4
sS'84819'
p252
I1
sS'241'
p253
I1
sS'-17'
p254
I1
sS'\xb9\xe6\xb3'
p255
I3
sS'\xba\xe4\xbd'
p256
I106
sS'\xba\xe4\xbc'
p257
I3
sS'\xba\xe4\xb9'
p258
I5
sS'g'
I5
sS'\xba\xe4\xba'
p259
I4
sS'13417331509'
p260
I1
sS'15730410005'
p261
I1
sS'13331032191'
p262
I1
sS'13701540584'
p263
I1
sS'\xaa\xe8\xb5'
p264
I1
sS'13261826058'
p265
I1
sS'w'
I1
sS'511'
p266
I1
sS'5537'
p267
I1
sS'1004'
p268
I1
sS'1000'
p269
I5
sS'13633206223'
p270
I1
sS'621'
p271
I2
sS'xl'
p272
I1
sS'13071823383'
p273
I1
sS'452'
p274
I1
sS'\xe5\xbe\xbd'
p275
I4
sS'13792523385'
p276
I1
sS'13826198677'
p277
I1
sS'15000'
p278
I1
sS'xr'
p279
I1
sS'15999788082'
p280
I1
sS'2883'
p281
I2
sS'18507105088'
p282
I1
sS'596'
p283
I1
sS'180'
p284
I1
sS'15657177618'
p285
I1
sS'182'
p286
I1
sS'1500'
p287
I1
sS'2'
I200
sS'18086602358'
p288
I1
sS'13666235673'
p289
I1
sS'15871982888'
p290
I1
sS'\xbd'
I3494
sS'gps'
p291
I4
sS'fz'
p292
I1
sS'15217250629'
p293
I1
sS'15296171484'
p294
I1
sS'13777923422'
p295
I1
sS'\xc3\xbc'
p296
I4
sS'\xe8\xbe\xbe\xe6'
p297
I5
sS'2760'
p298
I1
sS'0966'
p299
I1
sS'\xe8\xba\xba\xe7'
p300
I1
sS'67813'
p301
I1
sS'87275'
p302
I1
sS'\xe4\xba\xba\xe5\xbd'
p303
I2
sS'11'
p304
I37
sS'10'
p305
I91
sS'13'
p306
I34
sS'12'
p307
I85
sS'15'
p308
I94
sS'14'
p309
I33
sS'17'
p310
I65
sS'16'
p311
I56
sS'19'
p312
I48
sS'18'
p313
I42
sS'\xb2\xe5'
p314
I2
sS'\xb2\xe6'
p315
I5
sS'\xb2\xe7'
p316
I267
sS'6228480399464027370'
p317
I1
sS'13691743376'
p318
I2
sS'10627'
p319
I1
sS'\xb2\xe9'
p320
I12
sS'\xe6\xb2'
p321
I4452
sS'\xe6\xb3'
p322
I2020
sS'\xe6\xb5'
p323
I225
sS'\xe6\xb9'
p324
I31
sS'\xe6\xba'
p325
I9
sS'\xe6\xbc'
p326
I6
sS'\xe6\xbd'
p327
I9
sS'\xe6\xbe'
p328
I1
sS'15913104938'
p329
I1
sS'207'
p330
I1
sS'\xe6\xaa'
p331
I1
sS'15001267373'
p332
I1
sS'3236'
p333
I2
sS'15669059858'
p334
I1
sS'1619'
p335
I1
sS'18011751372'
p336
I1
sS'-'
I42
sS'322'
p337
I1
sS'320'
p338
I1
sS'\xb2'
I332
sS'200'
p339
I16
sS'15058110073'
p340
I1
sS'206'
p341
I1
sS'15332076181'
p342
I1
sS'837'
p343
I1
sS'00'
p344
I12
sS'13569324474'
p345
I2
sS'77'
p346
I4
sS'76'
p347
I2
sS'75'
p348
I5
sS'01'
p349
I3
sS'73'
p350
I3
sS'72'
p351
I6
sS'71'
p352
I2
sS'70'
p353
I15
sS'\xe6\xb9\xbe'
p354
I4
sS'79'
p355
I8
sS'78'
p356
I1
sS'13970638450'
p357
I3
sS'\xe2'
I33
sS'\xba\xe9\xaa'
p358
I2
sS'm'
I19
sS'dod'
p359
I1
sS'\xaa\xe4\xbd'
p360
I14
sS'\xe5\xb9\xb2\xe5'
p361
I7
sS'\xe5\xb9\xb2\xe6'
p362
I5
sS'\xaa\xe4\xba'
p363
I78
sS'83600'
p364
I1
sS'1263'
p365
I1
sS'666'
p366
I1
sS'\xb9\xe5\xba'
p367
I2
sS'\xb9\xe5\xbc'
p368
I37
sS'\xb9\xe5\xbe'
p369
I3
sS'\xba\xe5\xba'
p370
I1
sS'\xe7\xba\xb3'
p371
I13
sS'2527'
p372
I1
sS'\xe6\xb2\xb9\xe9'
p373
I7
sS'13567'
p374
I1
sS'bug'
p375
I1
sS'\xe6\xba\xaa'
p376
I1
sS'\xb3'
I1258
sS'\xb5\xe9'
p377
I22
sS'\xb5\xe8'
p378
I555
sS'15314629688'
p379
I1
sS'8'
I176
sS'\xb5\xe7'
p380
I1
sS'\xb5\xe6'
p381
I4
sS'18734196961'
p382
I1
sS'48619'
p383
I1
sS'18924149106'
p384
I1
sS'13570422490'
p385
I1
sS'196800'
p386
I1
sS'de'
p387
I1
sS'13175498748'
p388
I1
sS'\xb3\xe6\xb3'
p389
I3
sS'120'
p390
I3
sS'\xbe\xe9'
p391
I165
sS'b'
I61
sS'18040365700'
p392
I1
sS'dx'
p393
I1
sS'128'
p394
I1
sS'\xbe\xe5'
p395
I303
sS'\xbe\xe6'
p396
I19
sS'\xbe\xe7'
p397
I265
sS'qq'
p398
I1
sS'133'
p399
I1
sS'\xe3'
I399
sS'crv'
p400
I1
sS'85999'
p401
I1
sS'132'
p402
I2
sS'h'
I14
sS'131'
p403
I1
sS'polo'
p404
I1
sS'130'
p405
I3
sS'x'
I5
sS'\xe6\xb3\xbc'
p406
I2
sS'\xe6\xb3\xbd'
p407
I11
sS'15657197825'
p408
I2
sS'13623410454'
p409
I1
sS'8445'
p410
I1
sS'825997'
p411
I1
sS'77713'
p412
I1
sS'17771184189'
p413
I1
sS'13618616148'
p414
I1
sS'\xbd\xe8\xbd'
p415
I18
sS'06'
p416
I3
sS'07'
p417
I5
sS'18058672776'
p418
I6
sS'05'
p419
I1
sS'15715769221'
p420
I1
sS'08'
p421
I1
sS'09'
p422
I7
sS'3'
I230
sS'r'
I9
sS'\xe8\xbd\xbd\xe5'
p423
I1
sS'dlx'
p424
I1
sS'\xe9\xb3'
p425
I1
sS'\xe9\xb9'
p426
I3
sS'\xe5\xb2\xb3\xe9'
p427
I3
sS'\xe9\xba'
p428
I52
sS'\xe9\xbd'
p429
I99
sS'\xe9\xbc'
p430
I2
sS'\xe9\xbe'
p431
I89
sS'86469'
p432
I1
sS'\xbd\xe6\xba'
p433
I4
sS'\xe9\xb2'
p434
I8
sS'ld'
p435
I1
sS'wi'
p436
I2
sS'\xe6\xbd\xbc'
p437
I1
sS'\xe9\xaa'
p438
I148
sS'13738488440'
p439
I1
sS'\xe5\xb9\xb3\xe6'
p440
I4
sS'17710783760'
p441
I1
sS'785'
p442
I1
sS'c'
I12
sS'\xe8'
I22134
sS'etc'
p443
I57
sS's'
I25
sS'18110910960'
p444
I1
sS'18676688197'
p445
I1
sS'15394245352'
p446
I1
sS'13786871592'
p447
I1
sS'13381523977'
p448
I1
sS'13855111323'
p449
I1
sS'18912553653'
p450
I1
sS'\xbc\xe5\xbc'
p451
I14
sS'29'
p452
I32
sS'60'
p453
I20
sS'61'
p454
I1
sS'\xe4\xbc'
p455
I651
sS'63'
p456
I7
sS'\xe4\xba'
p457
I5638
sS'65'
p458
I4
sS'66'
p459
I8
sS'\xe4\xb9'
p460
I11951
sS'cs'
p461
I1
sS'69'
p462
I2
sS'253'
p463
I1
sS'15700114482'
p464
I1
sS'254'
p465
I1
sS'99903'
p466
I2
sS'pp'
p467
I1
sS'101'
p468
I1
sS'\xe8\xbe\xb9'
p469
I65
sS'15968805403'
p470
I3
sS'\xe7\xba\xaa\xe5\xbe'
p471
I1
sS'\xaa\xe5\xbe'
p472
I2
sS'\xaa\xe5\xbc'
p473
I3
sS'\xe8\xbe\xbe'
p474
I104
sS'731'
p475
I1
sS'730'
p476
I32
sS'13522994928'
p477
I1
sS'18338197588'
p478
I1
sS'158'
p479
I1
sS'\xb9'
I4080
sS'1030'
p480
I1
sS'500'
p481
I9
sS'630'
p482
I2
sS'1211'
p483
I1
sS'13676155385'
p484
I1
sS'rav4'
p485
I1
sS'900'
p486
I2
sS'528'
p487
I1
sS'13423843111'
p488
I1
sS'8267'
p489
I1
sS'byd'
p490
I1
sS'\xba\xe6\xb9'
p491
I1
sS'15162418805'
p492
I1
sS'\xe9'
I11414
sS'n'
I6
sS'18282686994'
p493
I1
sS'13012334977'
p494
I1
sS'15322231500'
p495
I1
sS'ix'
p496
I1
sS'18857138685'
p497
I1
sS'13770988772'
p498
I1
sS'18684008665'
p499
I1
sS'\xaa\xe8'
p500
I91
sS'\xaa\xe9'
p501
I162
sS'\xaa\xe4'
p502
I39
sS'\xaa\xe5'
p503
I413
sS'\xaa\xe6'
p504
I142
sS'\xaa\xe7'
p505
I4
sS'id'
p506
I19
sS'13778298710'
p507
I3
sS'18757175430'
p508
I1
sS'13622315832'
p509
I1
sS'\xe4\xba\xb2\xe5'
p510
I2
sS'\xef\xbd'
p511
I21
sS'\xe4\xba\xb2\xe7'
p512
I3
sS'13808078501'
p513
I2
sS'\xe5\xb9\xb3\xe9'
p514
I10
sS'\xbe'
I1921
sS'\xe4\xbd\xb3'
p515
I3
sS'\xbe\xe8\xbd'
p516
I1
sS'ios'
p517
I1
sS'\xce'
I5
sS'\xe8\xb5\xb5'
p518
I1
sS'\xb9\xe5\xb9\xb3'
p519
I1
sS'\xe7\xba\xbd'
p520
I1
sS'4000000666'
p521
I3
sS'\xb3\xe8\xb5'
p522
I1
sS'\xe6\xb5\xaa\xe8'
p523
I1
sS'i'
I5
sS'18398309689'
p524
I1
sS'31'
p525
I16
sS'2699'
p526
I1
sS'58285'
p527
I1
sS'84313'
p528
I1
sS'800'
p529
I2
sS'359'
p530
I2
sS'18703023786'
p531
I2
sS'45'
p532
I8
sS'15500950415'
p533
I1
sS'210'
p534
I6
sS'\xe6\xb2\xb9\xe8'
p535
I5
sS'15982814181'
p536
I1
sS'\xb3\xe6\xb2\xb9'
p537
I1
sS'18589971159'
p538
I1
sS'102855'
p539
I2
sS'18240192868'
p540
I1
sS'13720090151'
p541
I1
sS'13729105648'
p542
I2
sS'\xbc\xe8\xbd'
p543
I217
sS'\xb3\xe9'
p544
I69
sS'86203'
p545
I1
sS'\xe5\xb9\xb2'
p546
I25
sS'4'
I415
sS'280'
p547
I2
sS'13307911600'
p548
I1
sS'\xe4\xba\xba\xe8\xba'
p549
I1
sS'\xbe\xe5\xbe'
p550
I1
sS'\xe7\xb3'
p551
I449
sS'\xe7\xb2'
p552
I14
sS'\xe7\xbe'
p553
I18
sS'\xe7\xbd'
p554
I271
sS'\xe7\xbc'
p555
I41
sS'\xe7\xba'
p556
I1475
sS'\xe7\xb9'
p557
I6
sS'\xb9\xe4\xbe'
p558
I5
sS'\xe4\xbc\xbc'
p559
I4
sS'\xb9\xe4\xba'
p560
I4
sS'264'
p561
I1
sS'15563963621'
p562
I1
sS'cd'
p563
I1
sS'\xe7\xaa'
p564
I24
sS'58'
p565
I9
sS'13605925649'
p566
I1
sS'\xe4\xbe'
p567
I76
sS'59'
p568
I7
sS'd'
I7
sS'\xe5\xb2\xb3'
p569
I1
sS'55'
p570
I8
sS'54'
p571
I5
sS'57'
p572
I6
sS'56'
p573
I2
sS'51'
p574
I3
sS'50'
p575
I60
sS'53'
p576
I2
sS'52'
p577
I7
sS'13109530187'
p578
I2
sS'\xe4\xbd'
p579
I3092
sS't'
I9
sS'18090005890'
p580
I3
sS'\xe6\xbe\xb3'
p581
I1
sS'18221366746'
p582
I1
sS'15983'
p583
I1
sS'89837'
p584
I1
sS'93097'
p585
I2
sS'982'
p586
I1
sS'67'
p587
I1
sS'18025953144'
p588
I1
sS'115'
p589
I1
sS'68'
p590
I4
sS'117'
p591
I2
sS'18180444414'
p592
I1
sS'110'
p593
I4
sS'113'
p594
I1
sS'13920829990'
p595
I1
sS'\xe4\xba\xba\xe6\xb5'
p596
I3
sS'86653'
p597
I1
sS'480'
p598
I1
sS'18986938268'
p599
I1
sS'fcw'
p600
I1
sS'3008'
p601
I1
sS'13794218532'
p602
I1
sS'18928031632'
p603
I1
sS'15503710815'
p604
I1
sS'300'
p605
I7
sS'13567924027'
p606
I1
sS'13714594813'
p607
I2
sS'17730688897'
p608
I3
sS'9645'
p609
I2
sS'\xbc\xe4\xbc'
p610
I2
sS'_'
I3
sS'oo'
p611
I1
sS'\xe4'
I23688
sS'\xbe\xe7\xbd'
p612
I136
sS'o'
I14
sS'74'
p613
I4
sS'7547'
p614
I1
sS'\xb9\xe9'
p615
I10
sS'\xb9\xe8'
p616
I10
sS'\xbe\xe9\xbe'
p617
I40
sS'\xe8\xbe\xbd'
p618
I1
sS'\xb9\xe5'
p619
I72
sS'\xb9\xe4'
p620
I20
sS'\xb9\xe7'
p621
I191
sS'\xb9\xe6'
p622
I117
sS'1631'
p623
I2
sS'137800'
p624
I1
sS'1889695452218896981522'
p625
I1
sS'13246800736'
p626
I1
sS'2770'
p627
I1
sS'18069791571'
p628
I1
sS'\xb5'
I198
sS'84261'
p629
I1
sS'\xe7\xba\xb3\xe5'
p630
I1
sS'750'
p631
I3
sS'qiji'
p632
I1
sS'560'
p633
I4
sS'\xaa\xe8\xbe\xb9'
p634
I1
sS'13716942736'
p635
I1
sS'13611095002'
p636
I1
sS'\xaa\xe8\xbe\xbe'
p637
I4
sS'15825515844'
p638
I1
sS'\xe8\xbd\xbd\xe4\xba\xba'
p639
I1
sS'15234702247'
p640
I1
sS'\xe5\xaa\xb3\xe5'
p641
I1
sS'228'
p642
I4
sS'1598'
p643
I1
sS'18981404398'
p644
I1
sS'\xe5'
I71443
sS'114'
p645
I1
sS'7162'
p646
I1
sS'j'
I2
sS'391'
p647
I1
sS'1180'
p648
I1
sS'\xe4\xba\xb3\xe5'
p649
I1
sS'89'
p650
I3
sS'720'
p651
I1
sS'151'
p652
I2
sS'150'
p653
I17
sS'wifi'
p654
I1
sS'1160'
p655
I1
sS'600'
p656
I4
sS'157'
p657
I1
sS'156'
p658
I1
sS'\xe4\xba\xba\xe4'
p659
I3
sS'\xe4\xba\xba\xe5'
p660
I638
sS'\xe4\xba\xba\xe6'
p661
I17
sS'1200'
p662
I1
sS'633'
p663
I1
sS'18239536925'
p664
I1
sS'15868986603'
p665
I1
sS'\xe7\xb2\xbe\xe5'
p666
I1
sS'\xe7\xbc\xba'
p667
I3
sS'ev'
p668
I2
sS'48'
p669
I27
sS'\xe8\xbd\xbd'
p670
I77
sS'46'
p671
I7
sS'47'
p672
I10
sS'44'
p673
I3
sS'\xaa'
I2759
sS'42'
p674
I2
sS'43'
p675
I4
sS'40'
p676
I37
sS'41'
p677
I3
sS'\xe5\xb9\xb3'
p678
I71
sS'\xb3\xe8'
p679
I655
sS'5'
I307
sS'2550'
p680
I1
sS'\xba'
I3692
sS'\xb3\xe7'
p681
I6
sS'\xb3\xe6'
p682
I66
sS'\xb3\xe5'
p683
I51
sS'\xb3\xe4'
p684
I28
sS'\xbc\xe6'
p685
I28
sS'\xbc\xe7'
p686
I3
sS'\xbc\xe5'
p687
I13
sS'15008100353'
p688
I1
sS'\xbc\xe8'
p689
I152
sS'\xbc\xe9'
p690
I1
sS'56713'
p691
I1
sS'84769'
p692
I1
sS'2009'
p693
I1
sS'e'
I3
sS'18255914370'
p694
I1
sS'bcd'
p695
I1
sS'13770713823'
p696
I1
sS'\xb5\xe8\xbe\xbe'
p697
I2
sS'13771072178'
p698
I1
sS'94069'
p699
I1
sS'2000'
p700
I1
sS'u'
I3
sS'1361'
p701
I1
sS'4g'
p702
I8
sS'479'
p703
I1
sS'18910901906'
p704
I1
ssS'_mapping'
p705
(dp706
g18
I194
sg19
I167
sg20
I29
sg21
I17
sg22
I551
sg23
I727
sg24
I35
sg25
I349
sg26
I182
sg27
I282
sg28
I237
sg29
I690
sg30
I251
sg31
I367
sg32
I542
sg33
I622
sg34
I464
sS'0'
I89
sg35
I277
sg36
I244
sg37
I570
sg38
I249
sg39
I433
sg40
I446
sg41
I162
sg42
I320
sg43
I254
sg44
I425
sg45
I593
sg46
I127
sg47
I58
sg48
I299
sg49
I583
sg50
I148
sg51
I179
sg52
I679
sg53
I677
sg54
I709
sg55
I2
sg56
I557
sg57
I247
sg58
I559
sg59
I323
sg60
I327
sg61
I206
sg62
I715
sg63
I656
sg64
I558
sg65
I476
sg66
I617
sg67
I714
sg68
I471
sg69
I609
sg70
I444
sg71
I569
sg72
I451
sg73
I80
sg74
I236
sg75
I442
sg76
I608
sg77
I607
sg78
I153
sg79
I550
sg80
I238
sg81
I728
sg82
I210
sg83
I561
sS'\xd0'
I227
sg84
I203
sg85
I119
sg86
I306
sg87
I590
sg88
I595
sg89
I285
sg90
I473
sg91
I351
sg92
I474
sS'k'
I318
sg93
I14
sg94
I158
sg95
I467
sg96
I135
sg97
I344
sg98
I637
sg99
I732
sg100
I265
sg101
I196
sg102
I448
sg103
I635
sg104
I346
sg105
I668
sg106
I511
sg107
I108
sg108
I660
sS'6'
I59
sg109
I137
sg110
I38
sg111
I11
sg112
I40
sg113
I62
sg114
I188
sg115
I380
sg116
I540
sg117
I310
sg118
I643
sg119
I429
sg120
I597
sg121
I157
sg122
I190
sg123
I599
sg124
I494
sg125
I189
sg126
I337
sg127
I639
sg128
I483
sg129
I526
sg130
I520
sg131
I312
sS'f'
I314
sg132
I283
sg133
I625
sg134
I317
sg135
I664
sS'v'
I201
sg136
I632
sg137
I506
sg138
I584
sg139
I370
sg140
I447
sg141
I667
sg142
I100
sg143
I726
sg144
I527
sg145
I580
sg146
I507
sg147
I548
sg148
I698
sS'1'
I20
sg149
I408
sg150
I657
sg151
I489
sg152
I519
sg153
I600
sg154
I661
sg155
I70
sg156
I413
sg157
I594
sg158
I41
sg159
I48
sg160
I79
sg161
I74
sg162
I94
sg163
I225
sg164
I156
sg165
I75
sg166
I240
sS'a'
I216
sg167
I307
sg168
I673
sS'\xe6'
I6
sg169
I132
sS'q'
I510
sg170
I516
sg171
I579
sg172
I300
sg173
I273
sg174
I702
sg175
I64
sg176
I97
sg177
I115
sg178
I504
sg179
I619
sg180
I374
sg181
I218
sg182
I207
sg183
I723
sg184
I77
sg185
I24
sg186
I61
sg187
I138
sg188
I173
sg189
I104
sg190
I125
sg191
I105
sg192
I297
sg193
I421
sg194
I646
sg195
I57
sg196
I102
sg197
I649
sg198
I193
sg199
I245
sg200
I469
sg201
I535
sg202
I539
sg203
I461
sg204
I54
sg205
I369
sg206
I509
sg207
I303
sg208
I269
sg209
I168
sg210
I589
sS'\xc7'
I166
sg211
I490
sg212
I680
sg213
I552
sg214
I518
sS'9'
I90
sg215
I624
sg216
I439
sg217
I386
sg218
I522
sg219
I492
sg220
I288
sg221
I37
sS'\xe7'
I3
sg222
I568
sg223
I462
sS'l'
I69
sg224
I411
sg225
I395
sg226
I731
sg227
I313
sg228
I186
sg229
I631
sg230
I501
sg231
I414
sg232
I198
sg233
I575
sg234
I642
sg235
I633
sg236
I98
sg237
I400
sg238
I689
sg239
I620
sg240
I250
sg241
I615
sg242
I742
sg243
I495
sg244
I496
sg245
I499
sS'7'
I44
sg246
I718
sS'\xbc'
I83
sg247
I636
sg248
I676
sg249
I263
sg250
I472
sg251
I133
sg252
I532
sg253
I556
sg254
I329
sg255
I302
sg256
I118
sg257
I576
sg258
I445
sS'g'
I432
sg259
I412
sg260
I359
sg261
I712
sg262
I401
sg263
I428
sg264
I734
sg265
I437
sS'w'
I586
sg266
I634
sg267
I564
sg268
I330
sg269
I339
sg270
I582
sg271
I291
sg272
I514
sg273
I325
sg274
I721
sg275
I275
sg276
I549
sg277
I534
sg278
I652
sg279
I259
sg280
I388
sg12
I0
sg281
I219
sg282
I354
sg283
I326
sg284
I686
sg285
I722
sg286
I665
sg287
I574
sS'2'
I50
sg288
I626
sg289
I296
sg290
I226
sS'\xbd'
I36
sg291
I128
sg292
I422
sg293
I403
sg294
I640
sg295
I431
sg296
I289
sg297
I187
sg298
I587
sg299
I423
sg300
I399
sg301
I691
sg302
I513
sg303
I199
sg304
I178
sg305
I27
sg306
I267
sg307
I130
sg308
I84
sg309
I164
sg310
I113
sg311
I72
sg312
I172
sg313
I56
sg314
I215
sg315
I221
sg316
I45
sg317
I692
sg318
I376
sg319
I693
sg320
I139
sg321
I16
sg322
I71
sg323
I42
sg324
I126
sg325
I161
sg326
I121
sg327
I252
sg328
I316
sg329
I503
sg330
I654
sg331
I373
sg332
I524
sg333
I220
sg334
I402
sg335
I638
sg336
I650
sS'-'
I155
sg337
I280
sg338
I321
sS'\xb2'
I63
sg339
I355
sg340
I319
sg341
I670
sg342
I454
sg343
I696
sg344
I309
sg345
I293
sg346
I497
sg347
I645
sg348
I382
sg349
I256
sg350
I397
sg351
I426
sg352
I505
sg353
I145
sg354
I214
sg355
I222
sg356
I598
sg357
I482
sS'\xe2'
I141
sg358
I208
sS'm'
I177
sg359
I480
sg360
I234
sg361
I160
sg362
I176
sg363
I169
sg364
I364
sg365
I653
sg366
I466
sg367
I498
sg368
I25
sg369
I213
sg370
I659
sg371
I278
sg372
I479
sg373
I281
sg374
I684
sg375
I703
sg376
I565
sS'\xb3'
I65
sg377
I96
sg378
I4
sg379
I485
sS'8'
I22
sg380
I725
sg381
I231
sg382
I430
sg383
I700
sg384
I463
sg385
I345
sg386
I541
sg387
I612
sg388
I340
sg389
I366
sg390
I223
sg391
I144
sS'b'
I33
sg392
I484
sg393
I228
sg394
I502
sg395
I28
sg396
I246
sg397
I66
sg398
I729
sg399
I457
sS'\xe3'
I7
sg400
I627
sg401
I529
sg402
I396
sS'h'
I99
sg403
I705
sg404
I424
sg405
I616
sS'x'
I390
sg406
I122
sg407
I230
sg408
I450
sg409
I562
sg410
I560
sg411
I647
sg412
I681
sg413
I465
sg414
I268
sg415
I150
sg416
I175
sg417
I266
sg418
I384
sg419
I675
sg420
I585
sg421
I644
sg422
I276
sS'3'
I60
sS'r'
I409
sg423
I724
sg424
I604
sg425
I536
sg426
I232
sg427
I332
sg428
I88
sg429
I185
sg430
I224
sg431
I93
sg432
I530
sg433
I336
sg434
I165
sg435
I358
sg436
I154
sg437
I342
sg438
I146
sg439
I305
sg440
I662
sg441
I456
sg442
I443
sS'c'
I195
sS'\xe8'
I5
sg443
I85
sS's'
I134
sg444
I538
sg445
I566
sg446
I571
sg447
I322
sg448
I279
sg449
I711
sg450
I434
sg451
I229
sg452
I124
sg453
I120
sg454
I736
sg455
I47
sg456
I159
sg457
I15
sg458
I112
sg459
I416
sg460
I12
sg461
I261
sg462
I602
sg463
I697
sg464
I410
sg465
I630
sg466
I140
sg467
I537
sg468
I577
sg469
I68
sg470
I515
sg471
I738
sg472
I475
sg473
I391
sg474
I95
sg475
I737
sg476
I274
sg477
I687
sg478
I486
sg479
I591
sS'\xb9'
I18
sg480
I678
sg481
I235
sg482
I255
sg483
I383
sg484
I528
sg485
I648
sg486
I459
sg487
I440
sg488
I341
sg489
I614
sg490
I295
sg491
I405
sg492
I239
sS'\xe9'
I23
sS'n'
I290
sg493
I547
sg494
I531
sg495
I343
sg496
I392
sg497
I578
sg498
I618
sg499
I685
sg500
I49
sg501
I87
sg502
I131
sg503
I86
sg504
I111
sg505
I262
sg506
I377
sg507
I572
sg508
I271
sg509
I379
sg510
I398
sg511
I171
sg512
I449
sg513
I315
sg514
I101
sS'\xbe'
I32
sg515
I192
sg516
I567
sg517
I730
sS'\xce'
I362
sg518
I523
sg519
I455
sg520
I719
sg521
I301
sg522
I707
sg523
I740
sS'i'
I371
sg524
I389
sg525
I347
sg526
I720
sg527
I671
sg528
I553
sg529
I331
sg530
I623
sg531
I460
sg532
I233
sg533
I669
sg534
I174
sg535
I107
sg536
I387
sg537
I356
sg538
I641
sg539
I441
sg540
I581
sg541
I375
sg542
I204
sg543
I82
sg544
I123
sg545
I488
sg546
I152
sS'4'
I21
sg547
I253
sg548
I357
sg549
I682
sg550
I592
sg551
I8
sg552
I361
sg553
I81
sg554
I67
sg555
I151
sg556
I55
sg557
I184
sg558
I272
sg559
I674
sg560
I264
sg561
I555
sg562
I363
sg563
I563
sg564
I191
sg565
I477
sg566
I512
sg567
I53
sg568
I91
sS'd'
I286
sg569
I713
sg570
I217
sg571
I353
sg572
I257
sg573
I241
sg574
I284
sg575
I34
sg576
I706
sg577
I170
sg578
I212
sg579
I19
sS't'
I270
sg580
I573
sg581
I733
sg582
I672
sg583
I603
sg584
I368
sg585
I378
sg586
I452
sg587
I407
sg588
I651
sg589
I666
sg590
I404
sg591
I655
sg592
I546
sg593
I110
sg594
I481
sg595
I394
sg596
I92
sg597
I533
sg598
I487
sg599
I298
sg600
I695
sg601
I701
sg602
I242
sg603
I294
sg604
I418
sg605
I142
sg606
I468
sg607
I438
sg608
I365
sg609
I143
sg610
I683
sS'_'
I478
sg611
I741
sS'\xe4'
I9
sg612
I31
sS'o'
I129
sg613
I543
sg614
I500
sg615
I147
sg616
I117
sg617
I258
sg618
I694
sg619
I43
sg620
I205
sg621
I13
sg622
I73
sg623
I181
sg624
I260
sg625
I393
sg626
I338
sg627
I606
sg628
I304
sS'\xb5'
I46
sg629
I508
sg630
I335
sg631
I435
sg632
I588
sg633
I328
sg634
I360
sg635
I699
sg636
I521
sg637
I287
sg638
I491
sg639
I716
sg640
I243
sg641
I739
sg642
I183
sg643
I605
sg644
I663
sS'\xe5'
I1
sg645
I688
sg646
I517
sS'j'
I334
sg647
I629
sg648
I417
sg649
I613
sg650
I427
sg651
I324
sg652
I180
sg653
I200
sg654
I658
sg655
I415
sg656
I406
sg657
I610
sg658
I381
sg659
I292
sg660
I10
sg661
I78
sg662
I458
sg663
I708
sg664
I350
sg665
I545
sg666
I717
sg667
I628
sg668
I525
sg669
I106
sg670
I149
sg671
I308
sg672
I209
sg673
I352
sS'\xaa'
I30
sg674
I704
sg675
I202
sg676
I114
sg677
I348
sg678
I116
sg679
I52
sS'5'
I26
sg680
I710
sS'\xba'
I39
sg681
I311
sg682
I76
sg683
I197
sg684
I109
sg685
I211
sg686
I163
sg687
I136
sg688
I621
sg689
I51
sg690
I333
sg691
I735
sg692
I554
sg693
I601
sS'e'
I453
sg694
I493
sg695
I596
sg696
I436
sg697
I103
sg698
I420
sg699
I611
sg700
I470
sS'u'
I248
sg701
I385
sg702
I372
sg703
I544
sg704
I419
ssS'_reverse_mapping'
p707
(lp708
g12
aS'\xe5'
ag55
aS'\xe7'
ag378
aS'\xe8'
aS'\xe6'
aS'\xe3'
ag551
aS'\xe4'
ag660
ag111
ag460
ag621
ag93
ag457
ag321
ag21
aS'\xb9'
ag579
aS'1'
aS'4'
aS'8'
aS'\xe9'
ag185
ag368
aS'5'
ag305
ag395
ag20
aS'\xaa'
ag612
aS'\xbe'
aS'b'
ag575
ag24
aS'\xbd'
ag221
ag110
aS'\xba'
ag112
ag158
ag323
ag619
aS'7'
ag316
aS'\xb5'
ag455
ag159
ag500
aS'2'
ag689
ag679
ag567
ag204
ag556
ag313
ag195
ag47
aS'6'
aS'3'
ag186
ag113
aS'\xb2'
ag175
aS'\xb3'
ag397
ag554
ag469
aS'l'
ag155
ag322
ag311
ag622
ag161
ag165
ag682
ag184
ag661
ag160
ag73
ag553
ag543
aS'\xbc'
ag308
ag443
ag503
ag501
ag428
aS'0'
aS'9'
ag568
ag596
ag431
ag162
ag474
ag377
ag176
ag236
aS'h'
ag142
ag514
ag196
ag697
ag189
ag191
ag669
ag535
ag107
ag684
ag593
ag504
ag458
ag310
ag676
ag177
ag678
ag616
ag256
ag85
ag453
ag326
ag406
ag544
ag452
ag190
ag324
ag46
ag291
aS'o'
ag307
ag502
ag169
ag251
aS's'
ag96
ag687
ag109
ag187
ag320
ag466
aS'\xe2'
ag605
ag609
ag391
ag353
ag438
ag615
ag50
ag670
ag415
ag555
ag546
ag78
ag436
aS'-'
ag164
ag121
ag94
ag456
ag361
ag325
ag41
ag686
ag309
ag434
aS'\xc7'
ag19
ag209
ag363
ag577
ag511
ag312
ag188
ag534
ag416
ag362
aS'm'
ag304
ag51
ag652
ag623
ag26
ag642
ag557
ag429
ag228
ag297
ag114
ag125
ag122
ag564
ag515
ag198
ag18
aS'c'
ag101
ag683
ag232
ag303
ag653
aS'v'
ag675
ag84
ag542
ag620
ag61
ag182
ag358
ag672
ag82
ag685
ag578
ag369
ag354
ag314
aS'a'
ag570
ag181
ag281
ag333
ag315
ag355
ag390
ag430
ag163
ag290
aS'\xd0'
ag393
ag451
ag407
ag381
ag426
ag532
ag360
ag481
ag74
ag28
ag80
ag492
ag166
ag573
ag602
ag640
ag36
ag199
ag396
ag57
aS'u'
ag38
ag240
ag30
ag327
ag547
ag43
ag482
ag349
ag572
ag617
ag279
ag624
ag461
ag505
ag249
ag560
ag100
ag417
ag306
ag414
ag208
aS't'
ag508
ag558
ag173
ag476
ag275
ag422
ag35
ag371
ag448
ag337
ag373
ag27
ag132
ag574
ag89
aS'd'
ag637
ag220
ag296
aS'n'
ag271
ag659
ag345
ag603
ag490
ag289
ag192
ag599
ag48
ag172
ag521
ag255
ag207
ag628
ag439
ag86
ag167
ag671
ag344
ag117
ag681
ag131
ag227
aS'f'
ag513
ag328
ag134
aS'k'
ag340
ag42
ag338
ag447
ag59
ag651
ag273
ag283
ag60
ag633
ag254
ag268
ag529
ag427
ag690
aS'j'
ag630
ag433
ag126
ag626
ag269
ag388
ag488
ag437
ag495
ag97
ag385
ag104
ag525
ag677
ag25
ag664
ag91
ag673
ag571
ag282
ag339
ag537
ag548
ag435
ag260
ag634
ag552
aS'\xce'
ag562
ag364
ag608
ag389
ag31
ag584
ag205
ag139
aS'i'
ag702
ag331
ag180
ag541
ag318
ag506
ag585
ag509
ag115
ag658
ag348
ag483
ag418
ag701
ag217
ag536
ag280
ag524
aS'x'
ag473
ag496
ag625
ag595
ag225
ag402
ag350
ag510
ag300
ag237
ag262
ag334
ag293
ag590
ag491
ag656
ag587
ag149
aS'r'
ag464
ag224
ag259
ag156
ag231
ag655
ag459
ag648
ag604
ag704
ag698
ag193
ag292
ag299
ag404
ag44
ag351
ag650
ag263
ag119
ag382
ag295
aS'g'
ag39
ag450
ag631
ag696
ag265
ag607
ag216
ag487
ag539
ag75
ag442
ag70
ag258
ag40
ag140
ag102
ag512
ag408
ag72
ag586
aS'e'
ag342
ag519
ag441
ag399
ag662
ag486
ag531
ag203
ag223
ag384
ag34
ag413
ag366
ag95
ag606
ag200
ag700
ag68
ag250
ag90
ag92
ag472
ag65
ag565
aS'_'
ag372
ag359
ag594
ag357
ag128
ag392
ag379
ag478
ag598
ag545
ag151
ag211
ag638
ag219
ag694
ag124
ag243
ag244
ag346
ag367
ag245
ag614
ag230
ag394
ag329
ag178
ag352
ag137
ag146
ag629
ag206
aS'q'
ag106
ag566
ag302
ag272
ag470
ag170
ag646
ag214
ag152
ag130
ag636
ag218
ag518
ag332
ag668
ag129
ag144
ag484
ag401
ag432
ag494
ag252
ag597
ag277
ag201
ag425
ag467
ag444
ag202
ag116
ag386
ag32
ag613
ag703
ag665
ag592
ag493
ag147
ag276
ag79
ag22
ag213
ag528
ag692
ag561
ag253
ag56
ag64
ag58
ag410
ag83
ag409
ag563
ag267
ag376
ag445
ag516
ag222
ag71
ag37
ag446
ag507
ag580
ag287
ag233
ag257
ag468
ag497
ag171
ag145
ag540
ag270
ag49
ag138
ag420
aS'w'
ag298
ag632
ag210
ag87
ag479
ag550
ag45
ag157
ag88
ag695
ag120
ag356
ag123
ag153
ag693
ag462
ag583
ag424
ag643
ag627
ag77
ag76
ag69
ag657
ag699
ag387
ag649
ag489
ag241
ag405
ag66
ag498
ag179
ag239
ag688
ag33
ag530
ag215
ag133
ag288
ag400
ag667
ag647
ag465
ag229
ag136
ag235
ag266
ag103
ag247
ag98
ag335
ag127
ag294
ag538
ag234
ag118
ag421
ag347
ag194
ag411
ag485
ag197
ag336
ag588
ag278
ag365
ag330
ag591
ag63
ag150
ag654
ag370
ag108
ag154
ag440
ag644
ag135
ag286
ag589
ag141
ag105
ag533
ag341
ag527
ag582
ag168
ag559
ag419
ag248
ag53
ag480
ag52
ag212
ag412
ag549
ag610
ag374
ag499
ag284
ag477
ag645
ag238
ag29
ag301
ag317
ag319
ag618
ag600
ag343
ag463
ag148
ag635
ag383
ag601
ag174
ag375
ag674
ag403
ag576
ag522
ag663
ag54
ag680
ag449
ag261
ag569
ag67
ag62
ag639
ag666
ag246
ag520
ag526
ag274
ag285
ag183
ag423
ag380
ag143
ag23
ag81
ag398
ag517
ag226
ag99
ag581
ag264
ag691
ag454
ag475
ag471
ag641
ag523
ag611
ag242
asbsS'max_document_length'
p709
I82
sS'_tokenizer'
p710
ctensorflow.contrib.learn.python.learn.preprocessing.text
tokenizer
p711
sS'min_frequency'
p712
I0
sb.